; ModuleID = '6/4008.c'
source_filename = "6/4008.c"
target datalayout = "e-m:e-p270:32:32-p271:32:32-p272:64:64-i64:64-f80:128-n8:16:32:64-S128"
target triple = "x86_64-pc-linux-gnu"

@.str = private unnamed_addr constant [3 x i8] c"%d\00", align 1
@.str.1 = private unnamed_addr constant [6 x i8] c"%d %d\00", align 1
@.str.2 = private unnamed_addr constant [4 x i8] c"%d\0A\00", align 1

; Function Attrs: noinline nounwind uwtable
define dso_local i32 @main() #0 {
  %1 = alloca i32, align 4
  %2 = alloca i32, align 4
  %3 = alloca i32, align 4
  %4 = alloca i32, align 4
  %5 = alloca i32, align 4
  %6 = alloca i32, align 4
  %7 = alloca i32, align 4
  %8 = alloca i32, align 4
  %9 = alloca i32, align 4
  %10 = alloca i32, align 4
  %11 = alloca [10000 x i32], align 16
  store i32 0, i32* %1, align 4
  %12 = call i32 (i8*, ...) @__isoc99_scanf(i8* getelementptr inbounds ([3 x i8], [3 x i8]* @.str, i64 0, i64 0), i32* %2)
  store i32 0, i32* %5, align 4
  br label %13

13:                                               ; preds = %120, %0
  %14 = load i32, i32* %5, align 4
  %15 = load i32, i32* %2, align 4
  %16 = icmp slt i32 %14, %15
  br i1 %16, label %17, label %123

17:                                               ; preds = %13
  store i32 0, i32* %9, align 4
  %18 = call i32 (i8*, ...) @__isoc99_scanf(i8* getelementptr inbounds ([6 x i8], [6 x i8]* @.str.1, i64 0, i64 0), i32* %3, i32* %4)
  store i32 0, i32* %6, align 4
  br label %19

19:                                               ; preds = %31, %17
  %20 = load i32, i32* %6, align 4
  %21 = load i32, i32* %3, align 4
  %22 = load i32, i32* %4, align 4
  %23 = mul nsw i32 %21, %22
  %24 = icmp slt i32 %20, %23
  br i1 %24, label %25, label %34

25:                                               ; preds = %19
  %26 = call i32 (i8*, ...) @__isoc99_scanf(i8* getelementptr inbounds ([3 x i8], [3 x i8]* @.str, i64 0, i64 0), i32* %10)
  %27 = load i32, i32* %10, align 4
  %28 = load i32, i32* %6, align 4
  %29 = sext i32 %28 to i64
  %30 = getelementptr inbounds [10000 x i32], [10000 x i32]* %11, i64 0, i64 %29
  store i32 %27, i32* %30, align 4
  br label %31

31:                                               ; preds = %25
  %32 = load i32, i32* %6, align 4
  %33 = add nsw i32 %32, 1
  store i32 %33, i32* %6, align 4
  br label %19

34:                                               ; preds = %19
  store i32 0, i32* %7, align 4
  br label %35

35:                                               ; preds = %114, %34
  %36 = load i32, i32* %7, align 4
  %37 = load i32, i32* %3, align 4
  %38 = icmp slt i32 %36, %37
  br i1 %38, label %39, label %117

39:                                               ; preds = %35
  store i32 0, i32* %8, align 4
  br label %40

40:                                               ; preds = %110, %39
  %41 = load i32, i32* %8, align 4
  %42 = load i32, i32* %4, align 4
  %43 = icmp slt i32 %41, %42
  br i1 %43, label %44, label %113

44:                                               ; preds = %40
  %45 = load i32, i32* %7, align 4
  %46 = icmp eq i32 %45, 0
  br i1 %46, label %52, label %47

47:                                               ; preds = %44
  %48 = load i32, i32* %7, align 4
  %49 = load i32, i32* %3, align 4
  %50 = sub nsw i32 %49, 1
  %51 = icmp eq i32 %48, %50
  br i1 %51, label %52, label %63

52:                                               ; preds = %47, %44
  %53 = load i32, i32* %7, align 4
  %54 = load i32, i32* %4, align 4
  %55 = mul nsw i32 %53, %54
  %56 = load i32, i32* %8, align 4
  %57 = add nsw i32 %55, %56
  %58 = sext i32 %57 to i64
  %59 = getelementptr inbounds [10000 x i32], [10000 x i32]* %11, i64 0, i64 %58
  %60 = load i32, i32* %59, align 4
  %61 = load i32, i32* %9, align 4
  %62 = add nsw i32 %61, %60
  store i32 %62, i32* %9, align 4
  br label %63

63:                                               ; preds = %52, %47
  %64 = load i32, i32* %8, align 4
  %65 = icmp eq i32 %64, 0
  br i1 %65, label %66, label %85

66:                                               ; preds = %63
  %67 = load i32, i32* %7, align 4
  %68 = icmp ne i32 %67, 0
  br i1 %68, label %69, label %85

69:                                               ; preds = %66
  %70 = load i32, i32* %7, align 4
  %71 = load i32, i32* %3, align 4
  %72 = sub nsw i32 %71, 1
  %73 = icmp ne i32 %70, %72
  br i1 %73, label %74, label %85

74:                                               ; preds = %69
  %75 = load i32, i32* %7, align 4
  %76 = load i32, i32* %4, align 4
  %77 = mul nsw i32 %75, %76
  %78 = load i32, i32* %8, align 4
  %79 = add nsw i32 %77, %78
  %80 = sext i32 %79 to i64
  %81 = getelementptr inbounds [10000 x i32], [10000 x i32]* %11, i64 0, i64 %80
  %82 = load i32, i32* %81, align 4
  %83 = load i32, i32* %9, align 4
  %84 = add nsw i32 %83, %82
  store i32 %84, i32* %9, align 4
  br label %85

85:                                               ; preds = %74, %69, %66, %63
  %86 = load i32, i32* %8, align 4
  %87 = load i32, i32* %4, align 4
  %88 = sub nsw i32 %87, 1
  %89 = icmp eq i32 %86, %88
  br i1 %89, label %90, label %109

90:                                               ; preds = %85
  %91 = load i32, i32* %7, align 4
  %92 = icmp ne i32 %91, 0
  br i1 %92, label %93, label %109

93:                                               ; preds = %90
  %94 = load i32, i32* %7, align 4
  %95 = load i32, i32* %3, align 4
  %96 = sub nsw i32 %95, 1
  %97 = icmp ne i32 %94, %96
  br i1 %97, label %98, label %109

98:                                               ; preds = %93
  %99 = load i32, i32* %7, align 4
  %100 = load i32, i32* %4, align 4
  %101 = mul nsw i32 %99, %100
  %102 = load i32, i32* %8, align 4
  %103 = add nsw i32 %101, %102
  %104 = sext i32 %103 to i64
  %105 = getelementptr inbounds [10000 x i32], [10000 x i32]* %11, i64 0, i64 %104
  %106 = load i32, i32* %105, align 4
  %107 = load i32, i32* %9, align 4
  %108 = add nsw i32 %107, %106
  store i32 %108, i32* %9, align 4
  br label %109

109:                                              ; preds = %98, %93, %90, %85
  br label %110

110:                                              ; preds = %109
  %111 = load i32, i32* %8, align 4
  %112 = add nsw i32 %111, 1
  store i32 %112, i32* %8, align 4
  br label %40

113:                                              ; preds = %40
  br label %114

114:                                              ; preds = %113
  %115 = load i32, i32* %7, align 4
  %116 = add nsw i32 %115, 1
  store i32 %116, i32* %7, align 4
  br label %35

117:                                              ; preds = %35
  %118 = load i32, i32* %9, align 4
  %119 = call i32 (i8*, ...) @printf(i8* getelementptr inbounds ([4 x i8], [4 x i8]* @.str.2, i64 0, i64 0), i32 %118)
  br label %120

120:                                              ; preds = %117
  %121 = load i32, i32* %5, align 4
  %122 = add nsw i32 %121, 1
  store i32 %122, i32* %5, align 4
  br label %13

123:                                              ; preds = %13
  ret i32 0
}

declare dso_local i32 @__isoc99_scanf(i8*, ...) #1

declare dso_local i32 @printf(i8*, ...) #1


!llvm.module.flags = !{!0}
!llvm.ident = !{!1}

!0 = !{i32 1, !"wchar_size", i32 4}
!1 = !{!"clang version 10.0.0-4ubuntu1 "}
